target datalayout = "e-m:e-p270:32:32-p271:32:32-p272:64:64-i64:64-i128:128-f80:128-n8:16:32:64-S128"
target triple = "x86_64-pc-linux-gnu"

%struct.GenContext_ = type { i8, ptr, ptr, ptr, ptr, ptr, ptr, ptr, ptr, ptr, ptr, ptr, ptr, ptr, ptr, ptr, ptr, ptr, ptr, ptr, ptr, ptr, ptr, ptr, ptr, ptr, ptr, ptr, ptr, ptr, ptr, ptr, ptr, %struct.anon.85, i32, i32, %struct.DebugContext, ptr, ptr, ptr, %struct.BEValue, i8, %union.SourceSpan, ptr, ptr, ptr, ptr }
%struct.anon.85 = type { ptr, ptr, ptr }
%struct.DebugContext = type { i16, ptr, ptr, %struct.DebugFile_, ptr, ptr, ptr, ptr }
%struct.DebugFile_ = type { i16, ptr }
%struct.BEValue = type { i8, i32, ptr, ptr, ptr }
%union.SourceSpan = type { i64 }
%struct.Decl_ = type { ptr, ptr, %union.SourceSpan, i64, %union.anon, i32, %union.anon.0, i64, ptr, ptr, ptr, %union.anon.1 }
%union.anon = type { ptr }
%union.anon.0 = type { i16 }
%union.anon.1 = type { %struct.FuncDecl }
%struct.FuncDecl = type { i32, [4 x i8], %struct.Signature_, i32, i32, %union.anon.8 }
%struct.Signature_ = type <{ %struct.CalleeAttributes, i16, i8, i32, i32, [4 x i8], ptr }>
%struct.CalleeAttributes = type { i8 }
%union.anon.8 = type { %struct.anon.9 }
%struct.anon.9 = type { i16, %union.anon.10 }
%union.anon.10 = type { ptr }
%struct.anon = type { i16, i8, i8, i32 }
%struct.VarDecl_ = type { i32, i32, %union.anon.14, %union.anon.15 }
%union.anon.14 = type { ptr }
%union.anon.15 = type { %struct.anon.16 }
%struct.anon.16 = type { ptr, %union.SourceSpan }
%struct.anon.17 = type { ptr, %union.anon.18 }
%union.anon.18 = type { ptr }

@.str.1 = private unnamed_addr constant [6 x i8] c".anon\00", align 1

; Function Attrs: nounwind uwtable
define dso_local ptr @llvm_get_debug_type(ptr noundef %0, ptr noundef %1) #0 {
  %3 = alloca ptr, align 8
  %4 = alloca ptr, align 8
  store ptr %0, ptr %3, align 8
  store ptr %1, ptr %4, align 8
  %5 = load ptr, ptr %3, align 8
  %6 = load ptr, ptr %4, align 8
  %7 = load ptr, ptr %3, align 8
  %8 = getelementptr inbounds %struct.GenContext_, ptr %7, i32 0, i32 36
  %9 = getelementptr inbounds %struct.DebugContext, ptr %8, i32 0, i32 3
  %10 = getelementptr inbounds %struct.DebugFile_, ptr %9, i32 0, i32 1
  %11 = load ptr, ptr %10, align 8
  %12 = call ptr @llvm_get_debug_type_internal(ptr noundef %5, ptr noundef %6, ptr noundef %11)
  ret ptr %12
}

; Function Attrs: nounwind uwtable
define dso_local void @llvm_emit_debug_parameter(ptr noundef %0, ptr noundef %1, i32 noundef %2) #0 {
  %4 = alloca ptr, align 8
  %5 = alloca ptr, align 8
  %6 = alloca i32, align 4
  %7 = alloca ptr, align 8
  %8 = alloca i8, align 1
  %9 = alloca i32, align 4
  %10 = alloca i32, align 4
  %11 = alloca ptr, align 8
  store ptr %0, ptr %4, align 8
  store ptr %1, ptr %5, align 8
  store i32 %2, ptr %6, align 4
  %12 = load ptr, ptr %5, align 8
  %13 = getelementptr inbounds %struct.Decl_, ptr %12, i32 0, i32 0
  %14 = load ptr, ptr %13, align 8
  %15 = icmp ne ptr %14, null
  br i1 %15, label %16, label %20

16:                                               ; preds = %3
  %17 = load ptr, ptr %5, align 8
  %18 = getelementptr inbounds %struct.Decl_, ptr %17, i32 0, i32 0
  %19 = load ptr, ptr %18, align 8
  br label %21

20:                                               ; preds = %3
  br label %21

21:                                               ; preds = %20, %16
  %22 = phi ptr [ %19, %16 ], [ @.str.1, %20 ]
  store ptr %22, ptr %7, align 8
  store i8 0, ptr %8, align 1
  %23 = load ptr, ptr %5, align 8
  %24 = getelementptr inbounds %struct.Decl_, ptr %23, i32 0, i32 2
  %25 = getelementptr inbounds %struct.anon, ptr %24, i32 0, i32 3
  %26 = load i32, ptr %25, align 4
  store i32 %26, ptr %9, align 4
  %27 = load i32, ptr %9, align 4
  %28 = icmp eq i32 %27, 0
  br i1 %28, label %29, label %30

29:                                               ; preds = %21
  store i32 1, ptr %9, align 4
  br label %30

30:                                               ; preds = %29, %21
  %31 = load ptr, ptr %5, align 8
  %32 = getelementptr inbounds %struct.Decl_, ptr %31, i32 0, i32 2
  %33 = getelementptr inbounds %struct.anon, ptr %32, i32 0, i32 2
  %34 = load i8, ptr %33, align 1
  %35 = zext i8 %34 to i32
  store i32 %35, ptr %10, align 4
  %36 = load i32, ptr %10, align 4
  %37 = icmp eq i32 %36, 0
  br i1 %37, label %38, label %39

38:                                               ; preds = %30
  store i32 1, ptr %10, align 4
  br label %39

39:                                               ; preds = %38, %30
  %40 = load ptr, ptr %4, align 8
  %41 = getelementptr inbounds %struct.GenContext_, ptr %40, i32 0, i32 36
  %42 = getelementptr inbounds %struct.DebugContext, ptr %41, i32 0, i32 1
  %43 = load ptr, ptr %42, align 8
  %44 = load ptr, ptr %4, align 8
  %45 = getelementptr inbounds %struct.GenContext_, ptr %44, i32 0, i32 36
  %46 = getelementptr inbounds %struct.DebugContext, ptr %45, i32 0, i32 5
  %47 = load ptr, ptr %46, align 8
  %48 = load ptr, ptr %7, align 8
  %49 = load ptr, ptr %7, align 8
  %50 = call i64 @strlen(ptr noundef %49) #5
  %51 = load i32, ptr %6, align 4
  %52 = add i32 %51, 1
  %53 = load ptr, ptr %4, align 8
  %54 = getelementptr inbounds %struct.GenContext_, ptr %53, i32 0, i32 36
  %55 = getelementptr inbounds %struct.DebugContext, ptr %54, i32 0, i32 3
  %56 = getelementptr inbounds %struct.DebugFile_, ptr %55, i32 0, i32 1
  %57 = load ptr, ptr %56, align 8
  %58 = load i32, ptr %9, align 4
  %59 = load ptr, ptr %4, align 8
  %60 = load ptr, ptr %5, align 8
  %61 = getelementptr inbounds %struct.Decl_, ptr %60, i32 0, i32 10
  %62 = load ptr, ptr %61, align 8
  %63 = call ptr @llvm_get_debug_type(ptr noundef %59, ptr noundef %62)
  %64 = load i8, ptr %8, align 1
  %65 = trunc i8 %64 to i1
  %66 = zext i1 %65 to i32
  %67 = call ptr @LLVMDIBuilderCreateParameterVariable(ptr noundef %43, ptr noundef %47, ptr noundef %48, i64 noundef %50, i32 noundef %52, ptr noundef %57, i32 noundef %58, ptr noundef %63, i32 noundef %66, i32 noundef 0)
  %68 = load ptr, ptr %5, align 8
  %69 = getelementptr inbounds %struct.Decl_, ptr %68, i32 0, i32 11
  %70 = getelementptr inbounds %struct.VarDecl_, ptr %69, i32 0, i32 3
  %71 = getelementptr inbounds %struct.anon.17, ptr %70, i32 0, i32 0
  store ptr %67, ptr %71, align 8
  store ptr null, ptr %11, align 8
  %72 = load ptr, ptr %5, align 8
  %73 = getelementptr inbounds %struct.Decl_, ptr %72, i32 0, i32 3
  %74 = load i64, ptr %73, align 8
  %75 = lshr i64 %74, 17
  %76 = and i64 %75, 1
  %77 = trunc i64 %76 to i1
  br i1 %77, label %78, label %79

78:                                               ; preds = %39
  br label %123

79:                                               ; preds = %39
  %80 = load ptr, ptr %4, align 8
  %81 = getelementptr inbounds %struct.GenContext_, ptr %80, i32 0, i32 36
  %82 = getelementptr inbounds %struct.DebugContext, ptr %81, i32 0, i32 1
  %83 = load ptr, ptr %82, align 8
  %84 = load ptr, ptr %5, align 8
  %85 = getelementptr inbounds %struct.Decl_, ptr %84, i32 0, i32 3
  %86 = load i64, ptr %85, align 8
  %87 = lshr i64 %86, 17
  %88 = and i64 %87, 1
  %89 = trunc i64 %88 to i1
  br i1 %89, label %90, label %91

90:                                               ; preds = %79
  br label %95

91:                                               ; preds = %79
  %92 = load ptr, ptr %5, align 8
  %93 = getelementptr inbounds %struct.Decl_, ptr %92, i32 0, i32 4
  %94 = load ptr, ptr %93, align 8
  br label %95

95:                                               ; preds = %91, %90
  %96 = phi ptr [ null, %90 ], [ %94, %91 ]
  %97 = load ptr, ptr %5, align 8
  %98 = getelementptr inbounds %struct.Decl_, ptr %97, i32 0, i32 11
  %99 = getelementptr inbounds %struct.VarDecl_, ptr %98, i32 0, i32 3
  %100 = getelementptr inbounds %struct.anon.17, ptr %99, i32 0, i32 0
  %101 = load ptr, ptr %100, align 8
  %102 = load ptr, ptr %4, align 8
  %103 = getelementptr inbounds %struct.GenContext_, ptr %102, i32 0, i32 36
  %104 = getelementptr inbounds %struct.DebugContext, ptr %103, i32 0, i32 1
  %105 = load ptr, ptr %104, align 8
  %106 = call ptr @LLVMDIBuilderCreateExpression(ptr noundef %105, ptr noundef null, i64 noundef 0)
  %107 = load ptr, ptr %4, align 8
  %108 = getelementptr inbounds %struct.GenContext_, ptr %107, i32 0, i32 5
  %109 = load ptr, ptr %108, align 8
  %110 = load i32, ptr %9, align 4
  %111 = load i32, ptr %10, align 4
  %112 = load ptr, ptr %4, align 8
  %113 = getelementptr inbounds %struct.GenContext_, ptr %112, i32 0, i32 36
  %114 = getelementptr inbounds %struct.DebugContext, ptr %113, i32 0, i32 5
  %115 = load ptr, ptr %114, align 8
  %116 = load ptr, ptr %11, align 8
  %117 = call ptr @LLVMDIBuilderCreateDebugLocation(ptr noundef %109, i32 noundef %110, i32 noundef %111, ptr noundef %115, ptr noundef %116)
  %118 = load ptr, ptr %4, align 8
  %119 = getelementptr inbounds %struct.GenContext_, ptr %118, i32 0, i32 8
  %120 = load ptr, ptr %119, align 8
  %121 = call ptr @LLVMGetInsertBlock(ptr noundef %120)
  %122 = call ptr @LLVMDIBuilderInsertDeclareAtEnd(ptr noundef %83, ptr noundef %96, ptr noundef %101, ptr noundef %106, ptr noundef %117, ptr noundef %121)
  br label %123

123:                                              ; preds = %95, %78
  ret void
}