; Function Attrs: nounwind uwtable
define dso_local void @llvm_emit_debug_parameter(ptr nocapture noundef readonly %0, ptr nocapture noundef %1, i32 noundef %2) local_unnamed_addr #0 {
  %4 = load ptr, ptr %1, align 8
  %.not = icmp eq ptr %4, null
  %spec.select = select i1 %.not, ptr @.str.1, ptr %4
  %5 = getelementptr inbounds i8, ptr %1, i64 20
  %6 = load i32, ptr %5, align 4
  %spec.store.select = tail call i32 @llvm.umax.i32(i32 %6, i32 1)
  %7 = getelementptr inbounds i8, ptr %1, i64 19
  %8 = load i8, ptr %7, align 1
  %9 = getelementptr inbounds i8, ptr %0, i64 304
  %10 = load ptr, ptr %9, align 8
  %11 = getelementptr inbounds i8, ptr %0, i64 344
  %12 = load ptr, ptr %11, align 8
  %13 = tail call i64 @strlen(ptr noundef nonnull dereferenceable(1) %spec.select) #9
  %14 = add i32 %2, 1
  %15 = getelementptr inbounds i8, ptr %0, i64 328
  %16 = load ptr, ptr %15, align 8
  %17 = getelementptr inbounds i8, ptr %1, i64 72
  %18 = load ptr, ptr %17, align 8
  %19 = tail call fastcc ptr @llvm_get_debug_type_internal(ptr noundef %0, ptr noundef %18, ptr noundef %16)
  %20 = tail call ptr @LLVMDIBuilderCreateParameterVariable(ptr noundef %10, ptr noundef %12, ptr noundef nonnull %spec.select, i64 noundef %13, i32 noundef %14, ptr noundef %16, i32 noundef %spec.store.select, ptr noundef %19, i32 noundef 0, i32 noundef 0) #8
  %21 = getelementptr inbounds i8, ptr %1, i64 96
  store ptr %20, ptr %21, align 8
  %22 = getelementptr inbounds i8, ptr %1, i64 24
  %23 = load i64, ptr %22, align 8
  %24 = and i64 %23, 131072
  %.not29 = icmp eq i64 %24, 0
  br i1 %.not29, label %25, label %38

25:                                               ; preds = %3
  %narrow = tail call i8 @llvm.umax.i8(i8 %8, i8 1)
  %spec.store.select1 = zext i8 %narrow to i32
  %26 = load ptr, ptr %9, align 8
  %27 = getelementptr inbounds i8, ptr %1, i64 32
  %28 = load ptr, ptr %27, align 8
  %29 = tail call ptr @LLVMDIBuilderCreateExpression(ptr noundef %26, ptr noundef null, i64 noundef 0) #8
  %30 = getelementptr inbounds i8, ptr %0, i64 40
  %31 = load ptr, ptr %30, align 8
  %32 = load ptr, ptr %11, align 8
  %33 = tail call ptr @LLVMDIBuilderCreateDebugLocation(ptr noundef %31, i32 noundef %spec.store.select, i32 noundef %spec.store.select1, ptr noundef %32, ptr noundef null) #8
  %34 = getelementptr inbounds i8, ptr %0, i64 64
  %35 = load ptr, ptr %34, align 8
  %36 = tail call ptr @LLVMGetInsertBlock(ptr noundef %35) #8
  %37 = tail call ptr @LLVMDIBuilderInsertDeclareAtEnd(ptr noundef %26, ptr noundef %28, ptr noundef %20, ptr noundef %29, ptr noundef %33, ptr noundef %36) #8
  br label %38

38:                                               ; preds = %3, %25
  ret void
}